; Function Attrs: nounwind uwtable
define i32 @Llb_ManModelCheckGia(ptr noundef %0, ptr noundef %1) local_unnamed_addr #2 {
  %3 = tail call ptr @Gia_ManDupDfs(ptr noundef %0) #12
  %4 = tail call ptr @Gia_ManToAigSimple(ptr noundef %3) #12
  tail call void @Gia_ManStop(ptr noundef %3) #12
  %5 = getelementptr inbounds nuw i8, ptr %1, i64 12
  %6 = load i32, ptr %5, align 4, !tbaa !11
  %7 = icmp eq i32 %6, 0
  br i1 %7, label %8, label %10

8:                                                ; preds = %2
  %9 = tail call i32 @Llb_ManModelCheckAig(ptr noundef %4, ptr noundef nonnull %1, ptr noundef null, ptr noundef null)
  br label %12

10:                                               ; preds = %2
  %11 = tail call i32 @Llb_ManModelCheckAigWithHints(ptr noundef %4, ptr noundef nonnull %1) #12
  br label %12

12:                                               ; preds = %10, %8
  %.0 = phi i32 [ %9, %8 ], [ %11, %10 ]
  %13 = getelementptr inbounds nuw i8, ptr %4, i64 408
  %14 = load ptr, ptr %13, align 8, !tbaa !66
  %15 = getelementptr inbounds nuw i8, ptr %0, i64 376
  store ptr %14, ptr %15, align 8, !tbaa !67
  store ptr null, ptr %13, align 8, !tbaa !66
  tail call void @Aig_ManStop(ptr noundef %4) #12
  ret i32 %.0
}